; Function Attrs: nofree norecurse nosync nounwind memory(readwrite, inaccessiblemem: none) uwtable
define internal noundef i32 @shuffle_block8(ptr noundef readonly captures(none) %0, ptr noundef readonly captures(none) %1, i32 noundef %2, i32 noundef %3) #5 {
  %5 = getelementptr inbounds nuw i8, ptr %0, i64 72
  %6 = load ptr, ptr %5, align 8, !tbaa !4
  %7 = load ptr, ptr %1, align 8, !tbaa !43
  %8 = getelementptr inbounds nuw i8, ptr %1, i64 8
  %9 = load ptr, ptr %8, align 8, !tbaa !41
  %10 = getelementptr inbounds nuw i8, ptr %6, i64 36
  %11 = load i32, ptr %10, align 4, !tbaa !53
  %12 = icmp sgt i32 %11, 0
  br i1 %12, label %.lr.ph66, label %._crit_edge67

.lr.ph66:                                         ; preds = %4
  %13 = getelementptr inbounds nuw i8, ptr %6, i64 72
  %14 = add nsw i32 %2, 1
  %15 = getelementptr inbounds nuw i8, ptr %9, i64 64
  %16 = getelementptr inbounds nuw i8, ptr %6, i64 104
  %17 = getelementptr inbounds nuw i8, ptr %6, i64 56
  %18 = getelementptr inbounds nuw i8, ptr %7, i64 64
  br label %19

._crit_edge67:                                    ; preds = %._crit_edge63, %4
  ret i32 0

19:                                               ; preds = %.lr.ph66, %._crit_edge63
  %20 = phi i32 [ %11, %.lr.ph66 ], [ %48, %._crit_edge63 ]
  %indvars.iv71 = phi i64 [ 0, %.lr.ph66 ], [ %indvars.iv.next72, %._crit_edge63 ]
  %21 = getelementptr inbounds nuw [4 x i32], ptr %13, i64 0, i64 %indvars.iv71
  %22 = load i32, ptr %21, align 4, !tbaa !48
  %23 = mul nsw i32 %22, %2
  %24 = sdiv i32 %23, %3
  %25 = mul nsw i32 %22, %14
  %26 = sdiv i32 %25, %3
  %27 = getelementptr inbounds nuw [8 x i32], ptr %15, i64 0, i64 %indvars.iv71
  %28 = getelementptr inbounds nuw [8 x ptr], ptr %7, i64 0, i64 %indvars.iv71
  %29 = load ptr, ptr %28, align 8, !tbaa !84
  %30 = getelementptr inbounds nuw [4 x i32], ptr %17, i64 0, i64 %indvars.iv71
  %31 = icmp slt i32 %24, %26
  br i1 %31, label %.preheader.lr.ph, label %._crit_edge63

.preheader.lr.ph:                                 ; preds = %19
  %32 = load i32, ptr %30, align 4, !tbaa !48
  %33 = getelementptr inbounds nuw [8 x i32], ptr %18, i64 0, i64 %indvars.iv71
  %34 = icmp sgt i32 %32, 0
  br i1 %34, label %.preheader.preheader, label %._crit_edge63

.preheader.preheader:                             ; preds = %.preheader.lr.ph
  %35 = load ptr, ptr %16, align 8, !tbaa !62
  %36 = mul nsw i32 %32, %24
  %37 = sext i32 %36 to i64
  %38 = getelementptr inbounds i32, ptr %35, i64 %37
  %39 = getelementptr inbounds nuw [8 x ptr], ptr %9, i64 0, i64 %indvars.iv71
  %40 = load ptr, ptr %39, align 8, !tbaa !84
  %41 = load i32, ptr %27, align 4, !tbaa !48
  %42 = mul nsw i32 %41, %24
  %43 = sext i32 %42 to i64
  %44 = getelementptr inbounds i8, ptr %40, i64 %43
  br label %.preheader

.preheader:                                       ; preds = %.preheader.preheader, %._crit_edge
  %45 = phi i32 [ %51, %._crit_edge ], [ %41, %.preheader.preheader ]
  %46 = phi i32 [ %52, %._crit_edge ], [ %32, %.preheader.preheader ]
  %.05562 = phi i32 [ %56, %._crit_edge ], [ %24, %.preheader.preheader ]
  %.05661 = phi ptr [ %55, %._crit_edge ], [ %38, %.preheader.preheader ]
  %.05760 = phi ptr [ %54, %._crit_edge ], [ %44, %.preheader.preheader ]
  %47 = icmp sgt i32 %46, 0
  br i1 %47, label %.lr.ph, label %.preheader.._crit_edge_crit_edge

.preheader.._crit_edge_crit_edge:                 ; preds = %.preheader
  %.pre75 = sext i32 %46 to i64
  br label %._crit_edge

._crit_edge63.loopexit:                           ; preds = %._crit_edge
  %.pre74 = load i32, ptr %10, align 4, !tbaa !53
  br label %._crit_edge63

._crit_edge63:                                    ; preds = %.preheader.lr.ph, %._crit_edge63.loopexit, %19
  %48 = phi i32 [ %.pre74, %._crit_edge63.loopexit ], [ %20, %19 ], [ %20, %.preheader.lr.ph ]
  %indvars.iv.next72 = add nuw nsw i64 %indvars.iv71, 1
  %49 = sext i32 %48 to i64
  %50 = icmp slt i64 %indvars.iv.next72, %49
  br i1 %50, label %19, label %._crit_edge67, !llvm.loop !97

._crit_edge.loopexit:                             ; preds = %.lr.ph
  %.pre = load i32, ptr %27, align 4, !tbaa !48
  br label %._crit_edge

._crit_edge:                                      ; preds = %.preheader.._crit_edge_crit_edge, %._crit_edge.loopexit
  %.pre-phi = phi i64 [ %.pre75, %.preheader.._crit_edge_crit_edge ], [ %71, %._crit_edge.loopexit ]
  %51 = phi i32 [ %45, %.preheader.._crit_edge_crit_edge ], [ %.pre, %._crit_edge.loopexit ]
  %52 = phi i32 [ %46, %.preheader.._crit_edge_crit_edge ], [ %70, %._crit_edge.loopexit ]
  %53 = sext i32 %51 to i64
  %54 = getelementptr inbounds nuw i8, ptr %.05760, i64 %53
  %55 = getelementptr inbounds i32, ptr %.05661, i64 %.pre-phi
  %56 = add nsw i32 %.05562, 1
  %exitcond.not = icmp eq i32 %56, %26
  br i1 %exitcond.not, label %._crit_edge63.loopexit, label %.preheader, !llvm.loop !98

.lr.ph:                                           ; preds = %.preheader, %.lr.ph
  %indvars.iv = phi i64 [ %indvars.iv.next, %.lr.ph ], [ 0, %.preheader ]
  %57 = phi i32 [ %70, %.lr.ph ], [ %46, %.preheader ]
  %58 = getelementptr inbounds nuw i32, ptr %.05661, i64 %indvars.iv
  %59 = load i32, ptr %58, align 4, !tbaa !48
  %60 = sdiv i32 %59, %57
  %61 = srem i32 %59, %57
  %62 = sext i32 %61 to i64
  %63 = load i32, ptr %33, align 4, !tbaa !48
  %64 = mul nsw i32 %63, %60
  %65 = sext i32 %64 to i64
  %66 = getelementptr i8, ptr %29, i64 %62
  %67 = getelementptr i8, ptr %66, i64 %65
  %68 = load i8, ptr %67, align 1, !tbaa !69
  %69 = getelementptr inbounds nuw i8, ptr %.05760, i64 %indvars.iv
  store i8 %68, ptr %69, align 1, !tbaa !69
  %indvars.iv.next = add nuw nsw i64 %indvars.iv, 1
  %70 = load i32, ptr %30, align 4, !tbaa !48
  %71 = sext i32 %70 to i64
  %72 = icmp slt i64 %indvars.iv.next, %71
  br i1 %72, label %.lr.ph, label %._crit_edge.loopexit, !llvm.loop !99
}